; Function Attrs: mustprogress uwtable
define hidden noundef i32 @_ZN3ue213ReportManager29getUnassociatedExhaustibleKeyEv(ptr noundef nonnull align 8 dereferenceable(505) %0) local_unnamed_addr #1 align 2 personality ptr @__gxx_personality_v0 {
  %2 = alloca i32, align 4
  call void @llvm.lifetime.start.p0(i64 4, ptr nonnull %2) #21
  %3 = getelementptr inbounds nuw i8, ptr %0, i64 448
  %4 = getelementptr inbounds nuw i8, ptr %0, i64 488
  %5 = load i64, ptr %4, align 8
  %6 = trunc i64 %5 to i32
  store i32 %6, ptr %2, align 4
  %7 = getelementptr inbounds nuw i8, ptr %0, i64 496
  %8 = load i64, ptr %7, align 8
  %9 = add nsw i64 %8, -1
  store i64 %9, ptr %7, align 8
  %10 = call { ptr, i8 } @_ZNSt8_Rb_treeIxSt4pairIKxjESt10_Select1stIS2_ESt4lessIxESaIS2_EE17_M_emplace_uniqueIJRxRjEEES0_ISt17_Rb_tree_iteratorIS2_EbEDpOT_(ptr noundef nonnull align 8 dereferenceable(48) %3, ptr noundef nonnull align 8 dereferenceable(8) %7, ptr noundef nonnull align 4 dereferenceable(4) %2)
  %11 = load i32, ptr %2, align 4
  call void @llvm.lifetime.end.p0(i64 4, ptr nonnull %2) #21
  ret i32 %11
}